; Function Attrs: mustprogress uwtable
define internal void @_ZNK2cv4impl12_GLOBAL__N_120CvtColorLoop_InvokerINS_3hal12cpu_baseline12_GLOBAL__N_111RGB2YCrCb_iItEEEclERKNS_5RangeE(ptr nocapture noundef nonnull readonly align 8 dereferenceable(56) %0, ptr nocapture noundef nonnull readonly align 4 dereferenceable(8) %1) unnamed_addr #0 align 2 personality ptr @__gxx_personality_v0 {
  %3 = alloca %"class.cv::utils::trace::details::Region", align 8
  call void @_ZN2cv5utils5trace7details6RegionC1ERKNS3_21LocationStaticStorageE(ptr noundef nonnull align 8 dereferenceable(12) %3, ptr noundef nonnull align 8 dereferenceable(32) @_ZZNK2cv4impl12_GLOBAL__N_120CvtColorLoop_InvokerINS_3hal12cpu_baseline12_GLOBAL__N_111RGB2YCrCb_iItEEEclERKNS_5RangeEE25__cv_trace_location_fn146)
  %4 = load i32, ptr %1, align 4
  %5 = getelementptr inbounds i8, ptr %0, i64 16
  %6 = getelementptr inbounds i8, ptr %0, i64 32
  %7 = getelementptr inbounds i8, ptr %1, i64 4
  %8 = load i32, ptr %7, align 4
  %9 = icmp slt i32 %4, %8
  br i1 %9, label %.lr.ph, label %._crit_edge

.lr.ph:                                           ; preds = %2
  %10 = getelementptr inbounds i8, ptr %0, i64 48
  %11 = getelementptr inbounds i8, ptr %0, i64 40
  %12 = load i32, ptr %11, align 8
  %13 = icmp sgt i32 %12, 0
  br i1 %13, label %.lr.ph.split.preheader, label %._crit_edge

.lr.ph.split.preheader:                           ; preds = %.lr.ph
  %14 = getelementptr inbounds i8, ptr %0, i64 8
  %15 = load ptr, ptr %14, align 8
  %16 = load i64, ptr %5, align 8
  %17 = sext i32 %4 to i64
  %18 = mul i64 %16, %17
  %19 = getelementptr inbounds i8, ptr %15, i64 %18
  %20 = getelementptr inbounds i8, ptr %0, i64 24
  %21 = load ptr, ptr %20, align 8
  %22 = load i64, ptr %6, align 8
  %23 = mul i64 %22, %17
  %24 = getelementptr inbounds i8, ptr %21, i64 %23
  br label %.lr.ph.split

.lr.ph.split:                                     ; preds = %.lr.ph.split.preheader, %_ZNK2cv3hal12cpu_baseline12_GLOBAL__N_111RGB2YCrCb_iItEclEPKtPti.exit
  %25 = phi i32 [ %101, %_ZNK2cv3hal12cpu_baseline12_GLOBAL__N_111RGB2YCrCb_iItEclEPKtPti.exit ], [ %8, %.lr.ph.split.preheader ]
  %26 = phi i64 [ %102, %_ZNK2cv3hal12cpu_baseline12_GLOBAL__N_111RGB2YCrCb_iItEclEPKtPti.exit ], [ %22, %.lr.ph.split.preheader ]
  %27 = phi i64 [ %103, %_ZNK2cv3hal12cpu_baseline12_GLOBAL__N_111RGB2YCrCb_iItEclEPKtPti.exit ], [ %16, %.lr.ph.split.preheader ]
  %.016 = phi ptr [ %105, %_ZNK2cv3hal12cpu_baseline12_GLOBAL__N_111RGB2YCrCb_iItEclEPKtPti.exit ], [ %19, %.lr.ph.split.preheader ]
  %.01215 = phi ptr [ %106, %_ZNK2cv3hal12cpu_baseline12_GLOBAL__N_111RGB2YCrCb_iItEclEPKtPti.exit ], [ %24, %.lr.ph.split.preheader ]
  %.01314 = phi i32 [ %104, %_ZNK2cv3hal12cpu_baseline12_GLOBAL__N_111RGB2YCrCb_iItEclEPKtPti.exit ], [ %4, %.lr.ph.split.preheader ]
  %28 = load ptr, ptr %10, align 8
  %29 = load i32, ptr %11, align 8
  %30 = getelementptr inbounds i8, ptr %28, i64 12
  %31 = load i32, ptr %30, align 4
  %32 = getelementptr inbounds i8, ptr %28, i64 16
  %33 = load i32, ptr %32, align 4
  %34 = getelementptr inbounds i8, ptr %28, i64 20
  %35 = load i32, ptr %34, align 4
  %36 = getelementptr inbounds i8, ptr %28, i64 24
  %37 = load i32, ptr %36, align 4
  %38 = getelementptr inbounds i8, ptr %28, i64 28
  %39 = load i32, ptr %38, align 4
  %40 = icmp sgt i32 %29, 0
  br i1 %40, label %.lr.ph.i, label %_ZNK2cv3hal12cpu_baseline12_GLOBAL__N_111RGB2YCrCb_iItEclEPKtPti.exit

.lr.ph.i:                                         ; preds = %.lr.ph.split
  %41 = getelementptr inbounds i8, ptr %28, i64 8
  %42 = load i8, ptr %41, align 4
  %43 = and i8 %42, 1
  %44 = xor i8 %43, 1
  %45 = zext nneg i8 %44 to i32
  %46 = getelementptr inbounds i8, ptr %28, i64 4
  %47 = load i32, ptr %46, align 4
  %48 = load i32, ptr %28, align 4
  %49 = xor i32 %47, 2
  %50 = sext i32 %49 to i64
  %51 = sext i32 %47 to i64
  %52 = add nuw nsw i32 %45, 1
  %53 = zext nneg i32 %52 to i64
  %54 = sub nuw nsw i32 2, %45
  %55 = zext nneg i32 %54 to i64
  %56 = sext i32 %48 to i64
  br label %57

57:                                               ; preds = %57, %.lr.ph.i
  %.034.i = phi ptr [ %.016, %.lr.ph.i ], [ %99, %57 ]
  %.03033.i = phi ptr [ %.01215, %.lr.ph.i ], [ %100, %57 ]
  %.03132.i = phi i32 [ 0, %.lr.ph.i ], [ %98, %57 ]
  %58 = load i16, ptr %.034.i, align 2
  %59 = zext i16 %58 to i32
  %60 = mul nsw i32 %31, %59
  %61 = getelementptr inbounds i8, ptr %.034.i, i64 2
  %62 = load i16, ptr %61, align 2
  %63 = zext i16 %62 to i32
  %64 = mul nsw i32 %33, %63
  %65 = getelementptr inbounds i8, ptr %.034.i, i64 4
  %66 = load i16, ptr %65, align 2
  %67 = zext i16 %66 to i32
  %68 = mul nsw i32 %35, %67
  %69 = add i32 %60, 8192
  %70 = add i32 %69, %64
  %71 = add i32 %70, %68
  %72 = ashr i32 %71, 14
  %73 = getelementptr inbounds i16, ptr %.034.i, i64 %50
  %74 = load i16, ptr %73, align 2
  %75 = zext i16 %74 to i32
  %76 = sub nsw i32 %75, %72
  %77 = mul nsw i32 %76, %37
  %78 = add nsw i32 %77, 536879104
  %79 = ashr i32 %78, 14
  %80 = getelementptr inbounds i16, ptr %.034.i, i64 %51
  %81 = load i16, ptr %80, align 2
  %82 = zext i16 %81 to i32
  %83 = sub nsw i32 %82, %72
  %84 = mul nsw i32 %83, %39
  %85 = add nsw i32 %84, 536879104
  %86 = ashr i32 %85, 14
  %87 = call i32 @llvm.smax.i32(i32 %72, i32 0)
  %88 = call i32 @llvm.umin.i32(i32 %87, i32 65535)
  %89 = trunc nuw i32 %88 to i16
  store i16 %89, ptr %.03033.i, align 2
  %90 = call i32 @llvm.smax.i32(i32 %79, i32 0)
  %91 = call i32 @llvm.umin.i32(i32 %90, i32 65535)
  %92 = trunc nuw i32 %91 to i16
  %93 = getelementptr inbounds i16, ptr %.03033.i, i64 %53
  store i16 %92, ptr %93, align 2
  %94 = call i32 @llvm.smax.i32(i32 %86, i32 0)
  %95 = call i32 @llvm.umin.i32(i32 %94, i32 65535)
  %96 = trunc nuw i32 %95 to i16
  %97 = getelementptr inbounds i16, ptr %.03033.i, i64 %55
  store i16 %96, ptr %97, align 2
  %98 = add nuw nsw i32 %.03132.i, 1
  %99 = getelementptr inbounds i16, ptr %.034.i, i64 %56
  %100 = getelementptr inbounds i8, ptr %.03033.i, i64 6
  %exitcond.not.i = icmp eq i32 %98, %29
  br i1 %exitcond.not.i, label %_ZNK2cv3hal12cpu_baseline12_GLOBAL__N_111RGB2YCrCb_iItEclEPKtPti.exit.loopexit, label %57, !llvm.loop !90

_ZNK2cv3hal12cpu_baseline12_GLOBAL__N_111RGB2YCrCb_iItEclEPKtPti.exit.loopexit: ; preds = %57
  %.pre = load i64, ptr %5, align 8
  %.pre18 = load i64, ptr %6, align 8
  %.pre19 = load i32, ptr %7, align 4
  br label %_ZNK2cv3hal12cpu_baseline12_GLOBAL__N_111RGB2YCrCb_iItEclEPKtPti.exit

_ZNK2cv3hal12cpu_baseline12_GLOBAL__N_111RGB2YCrCb_iItEclEPKtPti.exit: ; preds = %_ZNK2cv3hal12cpu_baseline12_GLOBAL__N_111RGB2YCrCb_iItEclEPKtPti.exit.loopexit, %.lr.ph.split
  %101 = phi i32 [ %.pre19, %_ZNK2cv3hal12cpu_baseline12_GLOBAL__N_111RGB2YCrCb_iItEclEPKtPti.exit.loopexit ], [ %25, %.lr.ph.split ]
  %102 = phi i64 [ %.pre18, %_ZNK2cv3hal12cpu_baseline12_GLOBAL__N_111RGB2YCrCb_iItEclEPKtPti.exit.loopexit ], [ %26, %.lr.ph.split ]
  %103 = phi i64 [ %.pre, %_ZNK2cv3hal12cpu_baseline12_GLOBAL__N_111RGB2YCrCb_iItEclEPKtPti.exit.loopexit ], [ %27, %.lr.ph.split ]
  %104 = add nsw i32 %.01314, 1
  %105 = getelementptr inbounds i8, ptr %.016, i64 %103
  %106 = getelementptr inbounds i8, ptr %.01215, i64 %102
  %107 = icmp slt i32 %104, %101
  br i1 %107, label %.lr.ph.split, label %._crit_edge, !llvm.loop !91

._crit_edge:                                      ; preds = %_ZNK2cv3hal12cpu_baseline12_GLOBAL__N_111RGB2YCrCb_iItEclEPKtPti.exit, %.lr.ph, %2
  %108 = getelementptr inbounds i8, ptr %3, i64 8
  %109 = load i32, ptr %108, align 8
  %.not.i = icmp eq i32 %109, 0
  br i1 %.not.i, label %_ZN2cv5utils5trace7details6RegionD2Ev.exit, label %110

110:                                              ; preds = %._crit_edge
  invoke void @_ZN2cv5utils5trace7details6Region7destroyEv(ptr noundef nonnull align 8 dereferenceable(12) %3)
          to label %_ZN2cv5utils5trace7details6RegionD2Ev.exit unwind label %111

111:                                              ; preds = %110
  %112 = landingpad { ptr, i32 }
          catch ptr null
  %113 = extractvalue { ptr, i32 } %112, 0
  call void @__clang_call_terminate(ptr %113) #13
  unreachable

_ZN2cv5utils5trace7details6RegionD2Ev.exit:       ; preds = %._crit_edge, %110
  ret void
}